

Microchip Technology PIC LITE Macro Assembler V1.43 build -156212558 
                                                                                               Fri Aug 25 11:00:34 2017

Microchip Technology Omniscient Code Generator v1.43 (Free mode) build 201707250354
     1                           	processor	16F15323
     2                           	opt	pw 120
     3                           	opt	lm
     4                           	psect	cinit,global,class=CODE,merge=1,delta=2
     5                           	psect	cstackCOMMON,global,class=COMMON,space=1,delta=1
     6                           	psect	maintext,global,class=CODE,merge=1,split=1,delta=2
     7                           	psect	text1,local,class=CODE,merge=1,delta=2
     8                           	psect	text2,local,class=CODE,merge=1,delta=2
     9                           	psect	text3,local,class=CODE,merge=1,delta=2
    10                           	psect	text4,local,class=CODE,merge=1,delta=2
    11                           	psect	text5,local,class=CODE,merge=1,delta=2
    12                           	dabs	1,0x7E,2
    13  0000                     
    14                           ; Version 1.43
    15                           ; Generated 25/07/2017 GMT
    16                           ; 
    17                           ; Copyright © 2017, Microchip Technology Inc. and its subsidiaries ("Microchip")
    18                           ; All rights reserved.
    19                           ; 
    20                           ; This software is developed by Microchip Technology Inc. and its subsidiaries ("Microch
      +                          ip").
    21                           ; 
    22                           ; Redistribution and use in source and binary forms, with or without modification, are
    23                           ; permitted provided that the following conditions are met:
    24                           ; 
    25                           ;     1. Redistributions of source code must retain the above copyright notice, this lis
      +                          t of
    26                           ;        conditions and the following disclaimer.
    27                           ; 
    28                           ;     2. Redistributions in binary form must reproduce the above copyright notice, this 
      +                          list
    29                           ;        of conditions and the following disclaimer in the documentation and/or other
    30                           ;        materials provided with the distribution.
    31                           ; 
    32                           ;     3. Microchip's name may not be used to endorse or promote products derived from th
      +                          is
    33                           ;        software without specific prior written permission.
    34                           ; 
    35                           ; THIS SOFTWARE IS PROVIDED BY MICROCHIP "AS IS" AND ANY EXPRESS OR IMPLIED WARRANTIES,
    36                           ; INCLUDING, BUT NOT LIMITED TO, THE IMPLIED WARRANTIES OF MERCHANTABILITY AND FITNESS F
      +                          OR
    37                           ; PURPOSE ARE DISCLAIMED.  IN NO EVENT SHALL MICROCHIP BE LIABLE FOR ANY DIRECT, INDIREC
      +                          T,
    38                           ; INCIDENTAL, SPECIAL, EXEMPLARY, OR CONSEQUENTIAL DAMAGES (INCLUDING BUT NOT LIMITED TO
    39                           ; PROCUREMENT OF SUBSTITUTE GOODS OR SERVICES; LOSS OF USE, DATA OR PROFITS; OR BUSINESS
    40                           ; INTERRUPTION) HOWSOEVER CAUSED AND ON ANY THEORY OF LIABILITY, WHETHER IN CONTRACT, ST
      +                          RICT
    41                           ; LIABILITY, OR TORT (INCLUDING NEGLIGENCE OR OTHERWISE) ARISING IN ANY WAY OUT OF THE U
      +                          SE OF
    42                           ; THIS SOFTWARE, EVEN IF ADVISED OF THE POSSIBILITY OF SUCH DAMAGE.
    43                           ; 
    44                           ; 
    45                           ; Code-generator required, PIC16F15323 Definitions
    46                           ; 
    47                           ; SFR Addresses
    48  0000                     	;# 
    49  0001                     	;# 
    50  0002                     	;# 
    51  0003                     	;# 
    52  0004                     	;# 
    53  0005                     	;# 
    54  0006                     	;# 
    55  0007                     	;# 
    56  0008                     	;# 
    57  0009                     	;# 
    58  000A                     	;# 
    59  000B                     	;# 
    60  000C                     	;# 
    61  000E                     	;# 
    62  0012                     	;# 
    63  0014                     	;# 
    64  0018                     	;# 
    65  001A                     	;# 
    66  009B                     	;# 
    67  009B                     	;# 
    68  009C                     	;# 
    69  009D                     	;# 
    70  009E                     	;# 
    71  009F                     	;# 
    72  0119                     	;# 
    73  0119                     	;# 
    74  0119                     	;# 
    75  011A                     	;# 
    76  011A                     	;# 
    77  011A                     	;# 
    78  011B                     	;# 
    79  011B                     	;# 
    80  011B                     	;# 
    81  011B                     	;# 
    82  011B                     	;# 
    83  011C                     	;# 
    84  011C                     	;# 
    85  011C                     	;# 
    86  011D                     	;# 
    87  011D                     	;# 
    88  011D                     	;# 
    89  011E                     	;# 
    90  011E                     	;# 
    91  011E                     	;# 
    92  011F                     	;# 
    93  011F                     	;# 
    94  011F                     	;# 
    95  011F                     	;# 
    96  011F                     	;# 
    97  018C                     	;# 
    98  018D                     	;# 
    99  018E                     	;# 
   100  018F                     	;# 
   101  0190                     	;# 
   102  0191                     	;# 
   103  0192                     	;# 
   104  020C                     	;# 
   105  020C                     	;# 
   106  020D                     	;# 
   107  020E                     	;# 
   108  020F                     	;# 
   109  020F                     	;# 
   110  0210                     	;# 
   111  0210                     	;# 
   112  0211                     	;# 
   113  0211                     	;# 
   114  028C                     	;# 
   115  028C                     	;# 
   116  028D                     	;# 
   117  028D                     	;# 
   118  028E                     	;# 
   119  028F                     	;# 
   120  0290                     	;# 
   121  0291                     	;# 
   122  030C                     	;# 
   123  030C                     	;# 
   124  030D                     	;# 
   125  030E                     	;# 
   126  030F                     	;# 
   127  0310                     	;# 
   128  0310                     	;# 
   129  0311                     	;# 
   130  0312                     	;# 
   131  0313                     	;# 
   132  0314                     	;# 
   133  0315                     	;# 
   134  0316                     	;# 
   135  0318                     	;# 
   136  0319                     	;# 
   137  031A                     	;# 
   138  031C                     	;# 
   139  031D                     	;# 
   140  031E                     	;# 
   141  038C                     	;# 
   142  038D                     	;# 
   143  038E                     	;# 
   144  058C                     	;# 
   145  058C                     	;# 
   146  058D                     	;# 
   147  058E                     	;# 
   148  058F                     	;# 
   149  058F                     	;# 
   150  0590                     	;# 
   151  0591                     	;# 
   152  0592                     	;# 
   153  0593                     	;# 
   154  059C                     	;# 
   155  059C                     	;# 
   156  059D                     	;# 
   157  059D                     	;# 
   158  059E                     	;# 
   159  059F                     	;# 
   160  060C                     	;# 
   161  060D                     	;# 
   162  060E                     	;# 
   163  060F                     	;# 
   164  0610                     	;# 
   165  0611                     	;# 
   166  0612                     	;# 
   167  0613                     	;# 
   168  0614                     	;# 
   169  070C                     	;# 
   170  070D                     	;# 
   171  070E                     	;# 
   172  070F                     	;# 
   173  0710                     	;# 
   174  0711                     	;# 
   175  0712                     	;# 
   176  0713                     	;# 
   177  0716                     	;# 
   178  0717                     	;# 
   179  0718                     	;# 
   180  0719                     	;# 
   181  071A                     	;# 
   182  071B                     	;# 
   183  071C                     	;# 
   184  071D                     	;# 
   185  0796                     	;# 
   186  0797                     	;# 
   187  0798                     	;# 
   188  0799                     	;# 
   189  079A                     	;# 
   190  079B                     	;# 
   191  080C                     	;# 
   192  080D                     	;# 
   193  080E                     	;# 
   194  080F                     	;# 
   195  0810                     	;# 
   196  0811                     	;# 
   197  0812                     	;# 
   198  0813                     	;# 
   199  0814                     	;# 
   200  081A                     	;# 
   201  081A                     	;# 
   202  081B                     	;# 
   203  081C                     	;# 
   204  081C                     	;# 
   205  081D                     	;# 
   206  081E                     	;# 
   207  081F                     	;# 
   208  088C                     	;# 
   209  088D                     	;# 
   210  088E                     	;# 
   211  088F                     	;# 
   212  0890                     	;# 
   213  0891                     	;# 
   214  0892                     	;# 
   215  0893                     	;# 
   216  0895                     	;# 
   217  0896                     	;# 
   218  090C                     	;# 
   219  090E                     	;# 
   220  090F                     	;# 
   221  091F                     	;# 
   222  098F                     	;# 
   223  098F                     	;# 
   224  0990                     	;# 
   225  0991                     	;# 
   226  0992                     	;# 
   227  0993                     	;# 
   228  0994                     	;# 
   229  0995                     	;# 
   230  0996                     	;# 
   231  0997                     	;# 
   232  1E0F                     	;# 
   233  1E10                     	;# 
   234  1E11                     	;# 
   235  1E12                     	;# 
   236  1E13                     	;# 
   237  1E14                     	;# 
   238  1E15                     	;# 
   239  1E16                     	;# 
   240  1E17                     	;# 
   241  1E18                     	;# 
   242  1E19                     	;# 
   243  1E1A                     	;# 
   244  1E1B                     	;# 
   245  1E1C                     	;# 
   246  1E1D                     	;# 
   247  1E1E                     	;# 
   248  1E1F                     	;# 
   249  1E20                     	;# 
   250  1E21                     	;# 
   251  1E22                     	;# 
   252  1E23                     	;# 
   253  1E24                     	;# 
   254  1E25                     	;# 
   255  1E26                     	;# 
   256  1E27                     	;# 
   257  1E28                     	;# 
   258  1E29                     	;# 
   259  1E2A                     	;# 
   260  1E2B                     	;# 
   261  1E2C                     	;# 
   262  1E2D                     	;# 
   263  1E2E                     	;# 
   264  1E2F                     	;# 
   265  1E30                     	;# 
   266  1E31                     	;# 
   267  1E32                     	;# 
   268  1E33                     	;# 
   269  1E34                     	;# 
   270  1E35                     	;# 
   271  1E36                     	;# 
   272  1E37                     	;# 
   273  1E8F                     	;# 
   274  1E90                     	;# 
   275  1E91                     	;# 
   276  1E92                     	;# 
   277  1E93                     	;# 
   278  1E9C                     	;# 
   279  1EA1                     	;# 
   280  1EA2                     	;# 
   281  1EB1                     	;# 
   282  1EBB                     	;# 
   283  1EBC                     	;# 
   284  1EBD                     	;# 
   285  1EBE                     	;# 
   286  1EC3                     	;# 
   287  1EC5                     	;# 
   288  1EC6                     	;# 
   289  1EC7                     	;# 
   290  1ECB                     	;# 
   291  1ECC                     	;# 
   292  1F10                     	;# 
   293  1F11                     	;# 
   294  1F12                     	;# 
   295  1F13                     	;# 
   296  1F14                     	;# 
   297  1F15                     	;# 
   298  1F20                     	;# 
   299  1F21                     	;# 
   300  1F22                     	;# 
   301  1F23                     	;# 
   302  1F24                     	;# 
   303  1F25                     	;# 
   304  1F38                     	;# 
   305  1F39                     	;# 
   306  1F3A                     	;# 
   307  1F3B                     	;# 
   308  1F3C                     	;# 
   309  1F3D                     	;# 
   310  1F3E                     	;# 
   311  1F3F                     	;# 
   312  1F4E                     	;# 
   313  1F4F                     	;# 
   314  1F50                     	;# 
   315  1F51                     	;# 
   316  1F52                     	;# 
   317  1F53                     	;# 
   318  1F54                     	;# 
   319  1F55                     	;# 
   320  1FE4                     	;# 
   321  1FE5                     	;# 
   322  1FE6                     	;# 
   323  1FE7                     	;# 
   324  1FE8                     	;# 
   325  1FE8                     	;# 
   326  1FE9                     	;# 
   327  1FEA                     	;# 
   328  1FEA                     	;# 
   329  1FEB                     	;# 
   330  1FED                     	;# 
   331  1FEE                     	;# 
   332  1FEF                     	;# 
   333  0000                     	;# 
   334  0001                     	;# 
   335  0002                     	;# 
   336  0003                     	;# 
   337  0004                     	;# 
   338  0005                     	;# 
   339  0006                     	;# 
   340  0007                     	;# 
   341  0008                     	;# 
   342  0009                     	;# 
   343  000A                     	;# 
   344  000B                     	;# 
   345  000C                     	;# 
   346  000E                     	;# 
   347  0012                     	;# 
   348  0014                     	;# 
   349  0018                     	;# 
   350  001A                     	;# 
   351  009B                     	;# 
   352  009B                     	;# 
   353  009C                     	;# 
   354  009D                     	;# 
   355  009E                     	;# 
   356  009F                     	;# 
   357  0119                     	;# 
   358  0119                     	;# 
   359  0119                     	;# 
   360  011A                     	;# 
   361  011A                     	;# 
   362  011A                     	;# 
   363  011B                     	;# 
   364  011B                     	;# 
   365  011B                     	;# 
   366  011B                     	;# 
   367  011B                     	;# 
   368  011C                     	;# 
   369  011C                     	;# 
   370  011C                     	;# 
   371  011D                     	;# 
   372  011D                     	;# 
   373  011D                     	;# 
   374  011E                     	;# 
   375  011E                     	;# 
   376  011E                     	;# 
   377  011F                     	;# 
   378  011F                     	;# 
   379  011F                     	;# 
   380  011F                     	;# 
   381  011F                     	;# 
   382  018C                     	;# 
   383  018D                     	;# 
   384  018E                     	;# 
   385  018F                     	;# 
   386  0190                     	;# 
   387  0191                     	;# 
   388  0192                     	;# 
   389  020C                     	;# 
   390  020C                     	;# 
   391  020D                     	;# 
   392  020E                     	;# 
   393  020F                     	;# 
   394  020F                     	;# 
   395  0210                     	;# 
   396  0210                     	;# 
   397  0211                     	;# 
   398  0211                     	;# 
   399  028C                     	;# 
   400  028C                     	;# 
   401  028D                     	;# 
   402  028D                     	;# 
   403  028E                     	;# 
   404  028F                     	;# 
   405  0290                     	;# 
   406  0291                     	;# 
   407  030C                     	;# 
   408  030C                     	;# 
   409  030D                     	;# 
   410  030E                     	;# 
   411  030F                     	;# 
   412  0310                     	;# 
   413  0310                     	;# 
   414  0311                     	;# 
   415  0312                     	;# 
   416  0313                     	;# 
   417  0314                     	;# 
   418  0315                     	;# 
   419  0316                     	;# 
   420  0318                     	;# 
   421  0319                     	;# 
   422  031A                     	;# 
   423  031C                     	;# 
   424  031D                     	;# 
   425  031E                     	;# 
   426  038C                     	;# 
   427  038D                     	;# 
   428  038E                     	;# 
   429  058C                     	;# 
   430  058C                     	;# 
   431  058D                     	;# 
   432  058E                     	;# 
   433  058F                     	;# 
   434  058F                     	;# 
   435  0590                     	;# 
   436  0591                     	;# 
   437  0592                     	;# 
   438  0593                     	;# 
   439  059C                     	;# 
   440  059C                     	;# 
   441  059D                     	;# 
   442  059D                     	;# 
   443  059E                     	;# 
   444  059F                     	;# 
   445  060C                     	;# 
   446  060D                     	;# 
   447  060E                     	;# 
   448  060F                     	;# 
   449  0610                     	;# 
   450  0611                     	;# 
   451  0612                     	;# 
   452  0613                     	;# 
   453  0614                     	;# 
   454  070C                     	;# 
   455  070D                     	;# 
   456  070E                     	;# 
   457  070F                     	;# 
   458  0710                     	;# 
   459  0711                     	;# 
   460  0712                     	;# 
   461  0713                     	;# 
   462  0716                     	;# 
   463  0717                     	;# 
   464  0718                     	;# 
   465  0719                     	;# 
   466  071A                     	;# 
   467  071B                     	;# 
   468  071C                     	;# 
   469  071D                     	;# 
   470  0796                     	;# 
   471  0797                     	;# 
   472  0798                     	;# 
   473  0799                     	;# 
   474  079A                     	;# 
   475  079B                     	;# 
   476  080C                     	;# 
   477  080D                     	;# 
   478  080E                     	;# 
   479  080F                     	;# 
   480  0810                     	;# 
   481  0811                     	;# 
   482  0812                     	;# 
   483  0813                     	;# 
   484  0814                     	;# 
   485  081A                     	;# 
   486  081A                     	;# 
   487  081B                     	;# 
   488  081C                     	;# 
   489  081C                     	;# 
   490  081D                     	;# 
   491  081E                     	;# 
   492  081F                     	;# 
   493  088C                     	;# 
   494  088D                     	;# 
   495  088E                     	;# 
   496  088F                     	;# 
   497  0890                     	;# 
   498  0891                     	;# 
   499  0892                     	;# 
   500  0893                     	;# 
   501  0895                     	;# 
   502  0896                     	;# 
   503  090C                     	;# 
   504  090E                     	;# 
   505  090F                     	;# 
   506  091F                     	;# 
   507  098F                     	;# 
   508  098F                     	;# 
   509  0990                     	;# 
   510  0991                     	;# 
   511  0992                     	;# 
   512  0993                     	;# 
   513  0994                     	;# 
   514  0995                     	;# 
   515  0996                     	;# 
   516  0997                     	;# 
   517  1E0F                     	;# 
   518  1E10                     	;# 
   519  1E11                     	;# 
   520  1E12                     	;# 
   521  1E13                     	;# 
   522  1E14                     	;# 
   523  1E15                     	;# 
   524  1E16                     	;# 
   525  1E17                     	;# 
   526  1E18                     	;# 
   527  1E19                     	;# 
   528  1E1A                     	;# 
   529  1E1B                     	;# 
   530  1E1C                     	;# 
   531  1E1D                     	;# 
   532  1E1E                     	;# 
   533  1E1F                     	;# 
   534  1E20                     	;# 
   535  1E21                     	;# 
   536  1E22                     	;# 
   537  1E23                     	;# 
   538  1E24                     	;# 
   539  1E25                     	;# 
   540  1E26                     	;# 
   541  1E27                     	;# 
   542  1E28                     	;# 
   543  1E29                     	;# 
   544  1E2A                     	;# 
   545  1E2B                     	;# 
   546  1E2C                     	;# 
   547  1E2D                     	;# 
   548  1E2E                     	;# 
   549  1E2F                     	;# 
   550  1E30                     	;# 
   551  1E31                     	;# 
   552  1E32                     	;# 
   553  1E33                     	;# 
   554  1E34                     	;# 
   555  1E35                     	;# 
   556  1E36                     	;# 
   557  1E37                     	;# 
   558  1E8F                     	;# 
   559  1E90                     	;# 
   560  1E91                     	;# 
   561  1E92                     	;# 
   562  1E93                     	;# 
   563  1E9C                     	;# 
   564  1EA1                     	;# 
   565  1EA2                     	;# 
   566  1EB1                     	;# 
   567  1EBB                     	;# 
   568  1EBC                     	;# 
   569  1EBD                     	;# 
   570  1EBE                     	;# 
   571  1EC3                     	;# 
   572  1EC5                     	;# 
   573  1EC6                     	;# 
   574  1EC7                     	;# 
   575  1ECB                     	;# 
   576  1ECC                     	;# 
   577  1F10                     	;# 
   578  1F11                     	;# 
   579  1F12                     	;# 
   580  1F13                     	;# 
   581  1F14                     	;# 
   582  1F15                     	;# 
   583  1F20                     	;# 
   584  1F21                     	;# 
   585  1F22                     	;# 
   586  1F23                     	;# 
   587  1F24                     	;# 
   588  1F25                     	;# 
   589  1F38                     	;# 
   590  1F39                     	;# 
   591  1F3A                     	;# 
   592  1F3B                     	;# 
   593  1F3C                     	;# 
   594  1F3D                     	;# 
   595  1F3E                     	;# 
   596  1F3F                     	;# 
   597  1F4E                     	;# 
   598  1F4F                     	;# 
   599  1F50                     	;# 
   600  1F51                     	;# 
   601  1F52                     	;# 
   602  1F53                     	;# 
   603  1F54                     	;# 
   604  1F55                     	;# 
   605  1FE4                     	;# 
   606  1FE5                     	;# 
   607  1FE6                     	;# 
   608  1FE7                     	;# 
   609  1FE8                     	;# 
   610  1FE8                     	;# 
   611  1FE9                     	;# 
   612  1FEA                     	;# 
   613  1FEA                     	;# 
   614  1FEB                     	;# 
   615  1FED                     	;# 
   616  1FEE                     	;# 
   617  1FEF                     	;# 
   618  0000                     	;# 
   619  0001                     	;# 
   620  0002                     	;# 
   621  0003                     	;# 
   622  0004                     	;# 
   623  0005                     	;# 
   624  0006                     	;# 
   625  0007                     	;# 
   626  0008                     	;# 
   627  0009                     	;# 
   628  000A                     	;# 
   629  000B                     	;# 
   630  000C                     	;# 
   631  000E                     	;# 
   632  0012                     	;# 
   633  0014                     	;# 
   634  0018                     	;# 
   635  001A                     	;# 
   636  009B                     	;# 
   637  009B                     	;# 
   638  009C                     	;# 
   639  009D                     	;# 
   640  009E                     	;# 
   641  009F                     	;# 
   642  0119                     	;# 
   643  0119                     	;# 
   644  0119                     	;# 
   645  011A                     	;# 
   646  011A                     	;# 
   647  011A                     	;# 
   648  011B                     	;# 
   649  011B                     	;# 
   650  011B                     	;# 
   651  011B                     	;# 
   652  011B                     	;# 
   653  011C                     	;# 
   654  011C                     	;# 
   655  011C                     	;# 
   656  011D                     	;# 
   657  011D                     	;# 
   658  011D                     	;# 
   659  011E                     	;# 
   660  011E                     	;# 
   661  011E                     	;# 
   662  011F                     	;# 
   663  011F                     	;# 
   664  011F                     	;# 
   665  011F                     	;# 
   666  011F                     	;# 
   667  018C                     	;# 
   668  018D                     	;# 
   669  018E                     	;# 
   670  018F                     	;# 
   671  0190                     	;# 
   672  0191                     	;# 
   673  0192                     	;# 
   674  020C                     	;# 
   675  020C                     	;# 
   676  020D                     	;# 
   677  020E                     	;# 
   678  020F                     	;# 
   679  020F                     	;# 
   680  0210                     	;# 
   681  0210                     	;# 
   682  0211                     	;# 
   683  0211                     	;# 
   684  028C                     	;# 
   685  028C                     	;# 
   686  028D                     	;# 
   687  028D                     	;# 
   688  028E                     	;# 
   689  028F                     	;# 
   690  0290                     	;# 
   691  0291                     	;# 
   692  030C                     	;# 
   693  030C                     	;# 
   694  030D                     	;# 
   695  030E                     	;# 
   696  030F                     	;# 
   697  0310                     	;# 
   698  0310                     	;# 
   699  0311                     	;# 
   700  0312                     	;# 
   701  0313                     	;# 
   702  0314                     	;# 
   703  0315                     	;# 
   704  0316                     	;# 
   705  0318                     	;# 
   706  0319                     	;# 
   707  031A                     	;# 
   708  031C                     	;# 
   709  031D                     	;# 
   710  031E                     	;# 
   711  038C                     	;# 
   712  038D                     	;# 
   713  038E                     	;# 
   714  058C                     	;# 
   715  058C                     	;# 
   716  058D                     	;# 
   717  058E                     	;# 
   718  058F                     	;# 
   719  058F                     	;# 
   720  0590                     	;# 
   721  0591                     	;# 
   722  0592                     	;# 
   723  0593                     	;# 
   724  059C                     	;# 
   725  059C                     	;# 
   726  059D                     	;# 
   727  059D                     	;# 
   728  059E                     	;# 
   729  059F                     	;# 
   730  060C                     	;# 
   731  060D                     	;# 
   732  060E                     	;# 
   733  060F                     	;# 
   734  0610                     	;# 
   735  0611                     	;# 
   736  0612                     	;# 
   737  0613                     	;# 
   738  0614                     	;# 
   739  070C                     	;# 
   740  070D                     	;# 
   741  070E                     	;# 
   742  070F                     	;# 
   743  0710                     	;# 
   744  0711                     	;# 
   745  0712                     	;# 
   746  0713                     	;# 
   747  0716                     	;# 
   748  0717                     	;# 
   749  0718                     	;# 
   750  0719                     	;# 
   751  071A                     	;# 
   752  071B                     	;# 
   753  071C                     	;# 
   754  071D                     	;# 
   755  0796                     	;# 
   756  0797                     	;# 
   757  0798                     	;# 
   758  0799                     	;# 
   759  079A                     	;# 
   760  079B                     	;# 
   761  080C                     	;# 
   762  080D                     	;# 
   763  080E                     	;# 
   764  080F                     	;# 
   765  0810                     	;# 
   766  0811                     	;# 
   767  0812                     	;# 
   768  0813                     	;# 
   769  0814                     	;# 
   770  081A                     	;# 
   771  081A                     	;# 
   772  081B                     	;# 
   773  081C                     	;# 
   774  081C                     	;# 
   775  081D                     	;# 
   776  081E                     	;# 
   777  081F                     	;# 
   778  088C                     	;# 
   779  088D                     	;# 
   780  088E                     	;# 
   781  088F                     	;# 
   782  0890                     	;# 
   783  0891                     	;# 
   784  0892                     	;# 
   785  0893                     	;# 
   786  0895                     	;# 
   787  0896                     	;# 
   788  090C                     	;# 
   789  090E                     	;# 
   790  090F                     	;# 
   791  091F                     	;# 
   792  098F                     	;# 
   793  098F                     	;# 
   794  0990                     	;# 
   795  0991                     	;# 
   796  0992                     	;# 
   797  0993                     	;# 
   798  0994                     	;# 
   799  0995                     	;# 
   800  0996                     	;# 
   801  0997                     	;# 
   802  1E0F                     	;# 
   803  1E10                     	;# 
   804  1E11                     	;# 
   805  1E12                     	;# 
   806  1E13                     	;# 
   807  1E14                     	;# 
   808  1E15                     	;# 
   809  1E16                     	;# 
   810  1E17                     	;# 
   811  1E18                     	;# 
   812  1E19                     	;# 
   813  1E1A                     	;# 
   814  1E1B                     	;# 
   815  1E1C                     	;# 
   816  1E1D                     	;# 
   817  1E1E                     	;# 
   818  1E1F                     	;# 
   819  1E20                     	;# 
   820  1E21                     	;# 
   821  1E22                     	;# 
   822  1E23                     	;# 
   823  1E24                     	;# 
   824  1E25                     	;# 
   825  1E26                     	;# 
   826  1E27                     	;# 
   827  1E28                     	;# 
   828  1E29                     	;# 
   829  1E2A                     	;# 
   830  1E2B                     	;# 
   831  1E2C                     	;# 
   832  1E2D                     	;# 
   833  1E2E                     	;# 
   834  1E2F                     	;# 
   835  1E30                     	;# 
   836  1E31                     	;# 
   837  1E32                     	;# 
   838  1E33                     	;# 
   839  1E34                     	;# 
   840  1E35                     	;# 
   841  1E36                     	;# 
   842  1E37                     	;# 
   843  1E8F                     	;# 
   844  1E90                     	;# 
   845  1E91                     	;# 
   846  1E92                     	;# 
   847  1E93                     	;# 
   848  1E9C                     	;# 
   849  1EA1                     	;# 
   850  1EA2                     	;# 
   851  1EB1                     	;# 
   852  1EBB                     	;# 
   853  1EBC                     	;# 
   854  1EBD                     	;# 
   855  1EBE                     	;# 
   856  1EC3                     	;# 
   857  1EC5                     	;# 
   858  1EC6                     	;# 
   859  1EC7                     	;# 
   860  1ECB                     	;# 
   861  1ECC                     	;# 
   862  1F10                     	;# 
   863  1F11                     	;# 
   864  1F12                     	;# 
   865  1F13                     	;# 
   866  1F14                     	;# 
   867  1F15                     	;# 
   868  1F20                     	;# 
   869  1F21                     	;# 
   870  1F22                     	;# 
   871  1F23                     	;# 
   872  1F24                     	;# 
   873  1F25                     	;# 
   874  1F38                     	;# 
   875  1F39                     	;# 
   876  1F3A                     	;# 
   877  1F3B                     	;# 
   878  1F3C                     	;# 
   879  1F3D                     	;# 
   880  1F3E                     	;# 
   881  1F3F                     	;# 
   882  1F4E                     	;# 
   883  1F4F                     	;# 
   884  1F50                     	;# 
   885  1F51                     	;# 
   886  1F52                     	;# 
   887  1F53                     	;# 
   888  1F54                     	;# 
   889  1F55                     	;# 
   890  1FE4                     	;# 
   891  1FE5                     	;# 
   892  1FE6                     	;# 
   893  1FE7                     	;# 
   894  1FE8                     	;# 
   895  1FE8                     	;# 
   896  1FE9                     	;# 
   897  1FEA                     	;# 
   898  1FEA                     	;# 
   899  1FEB                     	;# 
   900  1FED                     	;# 
   901  1FEE                     	;# 
   902  1FEF                     	;# 
   903  0000                     	;# 
   904  0001                     	;# 
   905  0002                     	;# 
   906  0003                     	;# 
   907  0004                     	;# 
   908  0005                     	;# 
   909  0006                     	;# 
   910  0007                     	;# 
   911  0008                     	;# 
   912  0009                     	;# 
   913  000A                     	;# 
   914  000B                     	;# 
   915  000C                     	;# 
   916  000E                     	;# 
   917  0012                     	;# 
   918  0014                     	;# 
   919  0018                     	;# 
   920  001A                     	;# 
   921  009B                     	;# 
   922  009B                     	;# 
   923  009C                     	;# 
   924  009D                     	;# 
   925  009E                     	;# 
   926  009F                     	;# 
   927  0119                     	;# 
   928  0119                     	;# 
   929  0119                     	;# 
   930  011A                     	;# 
   931  011A                     	;# 
   932  011A                     	;# 
   933  011B                     	;# 
   934  011B                     	;# 
   935  011B                     	;# 
   936  011B                     	;# 
   937  011B                     	;# 
   938  011C                     	;# 
   939  011C                     	;# 
   940  011C                     	;# 
   941  011D                     	;# 
   942  011D                     	;# 
   943  011D                     	;# 
   944  011E                     	;# 
   945  011E                     	;# 
   946  011E                     	;# 
   947  011F                     	;# 
   948  011F                     	;# 
   949  011F                     	;# 
   950  011F                     	;# 
   951  011F                     	;# 
   952  018C                     	;# 
   953  018D                     	;# 
   954  018E                     	;# 
   955  018F                     	;# 
   956  0190                     	;# 
   957  0191                     	;# 
   958  0192                     	;# 
   959  020C                     	;# 
   960  020C                     	;# 
   961  020D                     	;# 
   962  020E                     	;# 
   963  020F                     	;# 
   964  020F                     	;# 
   965  0210                     	;# 
   966  0210                     	;# 
   967  0211                     	;# 
   968  0211                     	;# 
   969  028C                     	;# 
   970  028C                     	;# 
   971  028D                     	;# 
   972  028D                     	;# 
   973  028E                     	;# 
   974  028F                     	;# 
   975  0290                     	;# 
   976  0291                     	;# 
   977  030C                     	;# 
   978  030C                     	;# 
   979  030D                     	;# 
   980  030E                     	;# 
   981  030F                     	;# 
   982  0310                     	;# 
   983  0310                     	;# 
   984  0311                     	;# 
   985  0312                     	;# 
   986  0313                     	;# 
   987  0314                     	;# 
   988  0315                     	;# 
   989  0316                     	;# 
   990  0318                     	;# 
   991  0319                     	;# 
   992  031A                     	;# 
   993  031C                     	;# 
   994  031D                     	;# 
   995  031E                     	;# 
   996  038C                     	;# 
   997  038D                     	;# 
   998  038E                     	;# 
   999  058C                     	;# 
  1000  058C                     	;# 
  1001  058D                     	;# 
  1002  058E                     	;# 
  1003  058F                     	;# 
  1004  058F                     	;# 
  1005  0590                     	;# 
  1006  0591                     	;# 
  1007  0592                     	;# 
  1008  0593                     	;# 
  1009  059C                     	;# 
  1010  059C                     	;# 
  1011  059D                     	;# 
  1012  059D                     	;# 
  1013  059E                     	;# 
  1014  059F                     	;# 
  1015  060C                     	;# 
  1016  060D                     	;# 
  1017  060E                     	;# 
  1018  060F                     	;# 
  1019  0610                     	;# 
  1020  0611                     	;# 
  1021  0612                     	;# 
  1022  0613                     	;# 
  1023  0614                     	;# 
  1024  070C                     	;# 
  1025  070D                     	;# 
  1026  070E                     	;# 
  1027  070F                     	;# 
  1028  0710                     	;# 
  1029  0711                     	;# 
  1030  0712                     	;# 
  1031  0713                     	;# 
  1032  0716                     	;# 
  1033  0717                     	;# 
  1034  0718                     	;# 
  1035  0719                     	;# 
  1036  071A                     	;# 
  1037  071B                     	;# 
  1038  071C                     	;# 
  1039  071D                     	;# 
  1040  0796                     	;# 
  1041  0797                     	;# 
  1042  0798                     	;# 
  1043  0799                     	;# 
  1044  079A                     	;# 
  1045  079B                     	;# 
  1046  080C                     	;# 
  1047  080D                     	;# 
  1048  080E                     	;# 
  1049  080F                     	;# 
  1050  0810                     	;# 
  1051  0811                     	;# 
  1052  0812                     	;# 
  1053  0813                     	;# 
  1054  0814                     	;# 
  1055  081A                     	;# 
  1056  081A                     	;# 
  1057  081B                     	;# 
  1058  081C                     	;# 
  1059  081C                     	;# 
  1060  081D                     	;# 
  1061  081E                     	;# 
  1062  081F                     	;# 
  1063  088C                     	;# 
  1064  088D                     	;# 
  1065  088E                     	;# 
  1066  088F                     	;# 
  1067  0890                     	;# 
  1068  0891                     	;# 
  1069  0892                     	;# 
  1070  0893                     	;# 
  1071  0895                     	;# 
  1072  0896                     	;# 
  1073  090C                     	;# 
  1074  090E                     	;# 
  1075  090F                     	;# 
  1076  091F                     	;# 
  1077  098F                     	;# 
  1078  098F                     	;# 
  1079  0990                     	;# 
  1080  0991                     	;# 
  1081  0992                     	;# 
  1082  0993                     	;# 
  1083  0994                     	;# 
  1084  0995                     	;# 
  1085  0996                     	;# 
  1086  0997                     	;# 
  1087  1E0F                     	;# 
  1088  1E10                     	;# 
  1089  1E11                     	;# 
  1090  1E12                     	;# 
  1091  1E13                     	;# 
  1092  1E14                     	;# 
  1093  1E15                     	;# 
  1094  1E16                     	;# 
  1095  1E17                     	;# 
  1096  1E18                     	;# 
  1097  1E19                     	;# 
  1098  1E1A                     	;# 
  1099  1E1B                     	;# 
  1100  1E1C                     	;# 
  1101  1E1D                     	;# 
  1102  1E1E                     	;# 
  1103  1E1F                     	;# 
  1104  1E20                     	;# 
  1105  1E21                     	;# 
  1106  1E22                     	;# 
  1107  1E23                     	;# 
  1108  1E24                     	;# 
  1109  1E25                     	;# 
  1110  1E26                     	;# 
  1111  1E27                     	;# 
  1112  1E28                     	;# 
  1113  1E29                     	;# 
  1114  1E2A                     	;# 
  1115  1E2B                     	;# 
  1116  1E2C                     	;# 
  1117  1E2D                     	;# 
  1118  1E2E                     	;# 
  1119  1E2F                     	;# 
  1120  1E30                     	;# 
  1121  1E31                     	;# 
  1122  1E32                     	;# 
  1123  1E33                     	;# 
  1124  1E34                     	;# 
  1125  1E35                     	;# 
  1126  1E36                     	;# 
  1127  1E37                     	;# 
  1128  1E8F                     	;# 
  1129  1E90                     	;# 
  1130  1E91                     	;# 
  1131  1E92                     	;# 
  1132  1E93                     	;# 
  1133  1E9C                     	;# 
  1134  1EA1                     	;# 
  1135  1EA2                     	;# 
  1136  1EB1                     	;# 
  1137  1EBB                     	;# 
  1138  1EBC                     	;# 
  1139  1EBD                     	;# 
  1140  1EBE                     	;# 
  1141  1EC3                     	;# 
  1142  1EC5                     	;# 
  1143  1EC6                     	;# 
  1144  1EC7                     	;# 
  1145  1ECB                     	;# 
  1146  1ECC                     	;# 
  1147  1F10                     	;# 
  1148  1F11                     	;# 
  1149  1F12                     	;# 
  1150  1F13                     	;# 
  1151  1F14                     	;# 
  1152  1F15                     	;# 
  1153  1F20                     	;# 
  1154  1F21                     	;# 
  1155  1F22                     	;# 
  1156  1F23                     	;# 
  1157  1F24                     	;# 
  1158  1F25                     	;# 
  1159  1F38                     	;# 
  1160  1F39                     	;# 
  1161  1F3A                     	;# 
  1162  1F3B                     	;# 
  1163  1F3C                     	;# 
  1164  1F3D                     	;# 
  1165  1F3E                     	;# 
  1166  1F3F                     	;# 
  1167  1F4E                     	;# 
  1168  1F4F                     	;# 
  1169  1F50                     	;# 
  1170  1F51                     	;# 
  1171  1F52                     	;# 
  1172  1F53                     	;# 
  1173  1F54                     	;# 
  1174  1F55                     	;# 
  1175  1FE4                     	;# 
  1176  1FE5                     	;# 
  1177  1FE6                     	;# 
  1178  1FE7                     	;# 
  1179  1FE8                     	;# 
  1180  1FE8                     	;# 
  1181  1FE9                     	;# 
  1182  1FEA                     	;# 
  1183  1FEA                     	;# 
  1184  1FEB                     	;# 
  1185  1FED                     	;# 
  1186  1FEE                     	;# 
  1187  1FEF                     	;# 
  1188  001A                     _LATCbits	set	26
  1189  0018                     _LATAbits	set	24
  1190  0014                     _TRISC	set	20
  1191  0012                     _TRISA	set	18
  1192  001A                     _LATC	set	26
  1193  0018                     _LATA	set	24
  1194  005F                     _GIE	set	95
  1195  011A                     _TX1REG	set	282
  1196  0119                     _RC1REG	set	281
  1197  011D                     _RC1STAbits	set	285
  1198  011C                     _SP1BRGH	set	284
  1199  011B                     _SP1BRGL	set	283
  1200  011E                     _TX1STA	set	286
  1201  011D                     _RC1STA	set	285
  1202  011F                     _BAUD1CON	set	287
  1203  070F                     _PIR3bits	set	1807
  1204  0892                     _OSCTUNE	set	2194
  1205  0890                     _OSCSTAT	set	2192
  1206  0893                     _OSCFRQ	set	2195
  1207  0891                     _OSCEN	set	2193
  1208  088F                     _OSCCON3	set	2191
  1209  088D                     _OSCCON1	set	2189
  1210  4480                     _PLLR	set	17536
  1211  1ECB                     _RX1DTPPSbits	set	7883
  1212  1E8F                     _PPSLOCKbits	set	7823
  1213  1E8F                     _PPSLOCK	set	7823
  1214  1F24                     _RC4PPS	set	7972
  1215  1F50                     _ODCONC	set	8016
  1216  1F3A                     _ODCONA	set	7994
  1217  1F4F                     _WPUC	set	8015
  1218  1F39                     _WPUA	set	7993
  1219  1F38                     _ANSELA	set	7992
  1220  1F4E                     _ANSELC	set	8014
  1221                           
  1222                           ; #config settings
  1223  0000                     
  1224                           	psect	cinit
  1225  07FE                     start_initialization:	
  1226  07FE                     __initialization:	
  1227  07FE                     end_of_initialization:	
  1228                           ;End of C runtime variable initialization code
  1229                           
  1230  07FE                     __end_of__initialization:	
  1231  07FE  0140               	movlb	0
  1232  07FF  2F9C               	ljmp	_main	;jump to C main() function
  1233                           
  1234                           	psect	cstackCOMMON
  1235  0070                     __pcstackCOMMON:	
  1236  0070                     ?_PIN_MANAGER_Initialize:	
  1237  0070                     ??_PIN_MANAGER_Initialize:	
  1238                           ; 1 bytes @ 0x0
  1239                           
  1240  0070                     ?_OSCILLATOR_Initialize:	
  1241                           ; 1 bytes @ 0x0
  1242                           
  1243  0070                     ??_OSCILLATOR_Initialize:	
  1244                           ; 1 bytes @ 0x0
  1245                           
  1246  0070                     ?_EUSART1_Initialize:	
  1247                           ; 1 bytes @ 0x0
  1248                           
  1249  0070                     ??_EUSART1_Initialize:	
  1250                           ; 1 bytes @ 0x0
  1251                           
  1252  0070                     ?_SYSTEM_Initialize:	
  1253                           ; 1 bytes @ 0x0
  1254                           
  1255  0070                     ?_delay:	
  1256                           ; 1 bytes @ 0x0
  1257                           
  1258  0070                     ??_delay:	
  1259                           ; 1 bytes @ 0x0
  1260                           
  1261  0070                     ?_main:	
  1262                           ; 1 bytes @ 0x0
  1263                           
  1264  0070                     PIN_MANAGER_Initialize@state:	
  1265                           ; 1 bytes @ 0x0
  1266                           
  1267                           
  1268                           ; 1 bytes @ 0x0
  1269  0070                     	ds	1
  1270  0071                     ??_SYSTEM_Initialize:	
  1271  0071                     delay@a:	
  1272                           ; 1 bytes @ 0x1
  1273                           
  1274                           
  1275                           ; 1 bytes @ 0x1
  1276  0071                     	ds	1
  1277  0072                     delay@b:	
  1278                           
  1279                           ; 1 bytes @ 0x2
  1280  0072                     	ds	1
  1281  0073                     delay@c:	
  1282                           
  1283                           ; 1 bytes @ 0x3
  1284  0073                     	ds	1
  1285  0074                     ??_main:	
  1286                           
  1287                           	psect	maintext
  1288  079C                     __pmaintext:	
  1289                           ; 1 bytes @ 0x4
  1290 ;;
  1291 ;;Main: autosize = 0, tempsize = 0, incstack = 0, save=0
  1292 ;;
  1293 ;; *************** function _main *****************
  1294 ;; Defined at:
  1295 ;;		line 60 in file "main.c"
  1296 ;; Parameters:    Size  Location     Type
  1297 ;;		None
  1298 ;; Auto vars:     Size  Location     Type
  1299 ;;		None
  1300 ;; Return value:  Size  Location     Type
  1301 ;;                  1    wreg      void 
  1302 ;; Registers used:
  1303 ;;		wreg, status,2, status,0, pclath, cstack
  1304 ;; Tracked objects:
  1305 ;;		On entry : B3F/0
  1306 ;;		On exit  : 0/0
  1307 ;;		Unchanged: 0/0
  1308 ;; Data sizes:     COMMON   BANK0   BANK1   BANK2
  1309 ;;      Params:         0       0       0       0
  1310 ;;      Locals:         0       0       0       0
  1311 ;;      Temps:          0       0       0       0
  1312 ;;      Totals:         0       0       0       0
  1313 ;;Total ram usage:        0 bytes
  1314 ;; Hardware stack levels required when called:    2
  1315 ;; This function calls:
  1316 ;;		_SYSTEM_Initialize
  1317 ;;		_delay
  1318 ;; This function is called by:
  1319 ;;		Startup code after reset
  1320 ;; This function uses a non-reentrant model
  1321 ;;
  1322                           
  1323                           
  1324                           ;psect for function _main
  1325  079C                     _main:	
  1326                           
  1327                           ;main.c: 63: SYSTEM_Initialize();
  1328                           
  1329                           ;incstack = 0
  1330                           ; Regs used in _main: [wreg+status,2+status,0+pclath+cstack]
  1331  079C  2780               	fcall	_SYSTEM_Initialize
  1332  079D                     l594:	
  1333                           ;main.c: 81: {
  1334                           ;main.c: 83: do { LATAbits.LATA2 = 0; } while(0);
  1335                           
  1336                           ;main.c: 80: while (1)
  1337                           
  1338  079D  0140               	movlb	0	; select bank0
  1339  079E  1118               	bcf	24,2	;volatile
  1340                           
  1341                           ;main.c: 84: do { LATCbits.LATC2 = 0; } while(0);
  1342  079F  111A               	bcf	26,2	;volatile
  1343                           
  1344                           ;main.c: 85: do { LATAbits.LATA5 = 1; } while(0);
  1345  07A0  1698               	bsf	24,5	;volatile
  1346                           
  1347                           ;main.c: 86: do { LATAbits.LATA4 = 1; } while(0);
  1348  07A1  1618               	bsf	24,4	;volatile
  1349                           
  1350                           ;main.c: 87: delay();
  1351  07A2  27AA               	fcall	_delay
  1352                           
  1353                           ;main.c: 88: do { LATAbits.LATA2 = 1; } while(0);
  1354  07A3  0140               	movlb	0	; select bank0
  1355  07A4  1518               	bsf	24,2	;volatile
  1356                           
  1357                           ;main.c: 89: do { LATCbits.LATC2 = 1; } while(0);
  1358  07A5  151A               	bsf	26,2	;volatile
  1359                           
  1360                           ;main.c: 90: do { LATAbits.LATA5 = 0; } while(0);
  1361  07A6  1298               	bcf	24,5	;volatile
  1362                           
  1363                           ;main.c: 91: do { LATAbits.LATA4 = 0; } while(0);
  1364  07A7  1218               	bcf	24,4	;volatile
  1365                           
  1366                           ;main.c: 92: delay();
  1367  07A8  27AA               	fcall	_delay
  1368  07A9  2F9D               	goto	l594
  1369  07AA                     __end_of_main:	
  1370                           
  1371                           	psect	text1
  1372  07AA                     __ptext1:	
  1373 ;; *************** function _delay *****************
  1374 ;; Defined at:
  1375 ;;		line 51 in file "main.c"
  1376 ;; Parameters:    Size  Location     Type
  1377 ;;		None
  1378 ;; Auto vars:     Size  Location     Type
  1379 ;;  c               1    3[COMMON] unsigned char 
  1380 ;;  b               1    2[COMMON] unsigned char 
  1381 ;;  a               1    1[COMMON] unsigned char 
  1382 ;; Return value:  Size  Location     Type
  1383 ;;                  1    wreg      void 
  1384 ;; Registers used:
  1385 ;;		wreg, status,2, status,0
  1386 ;; Tracked objects:
  1387 ;;		On entry : 0/0
  1388 ;;		On exit  : 0/0
  1389 ;;		Unchanged: 0/0
  1390 ;; Data sizes:     COMMON   BANK0   BANK1   BANK2
  1391 ;;      Params:         0       0       0       0
  1392 ;;      Locals:         3       0       0       0
  1393 ;;      Temps:          1       0       0       0
  1394 ;;      Totals:         4       0       0       0
  1395 ;;Total ram usage:        4 bytes
  1396 ;; Hardware stack levels used:    1
  1397 ;; This function calls:
  1398 ;;		Nothing
  1399 ;; This function is called by:
  1400 ;;		_main
  1401 ;; This function uses a non-reentrant model
  1402 ;;
  1403                           
  1404                           
  1405                           ;psect for function _delay
  1406  07AA                     _delay:	
  1407                           
  1408                           ;main.c: 53: unsigned char a,b,c;
  1409                           ;main.c: 54: for(c=252;c>0;c--)
  1410                           
  1411                           ;incstack = 0
  1412                           ; Regs used in _delay: [wreg+status,2+status,0]
  1413  07AA  30FC               	movlw	252
  1414  07AB  00F0               	movwf	??_delay
  1415  07AC  0870               	movf	??_delay,w
  1416  07AD  00F3               	movwf	delay@c
  1417  07AE  0873               	movf	delay@c,w
  1418  07AF  1903               	btfsc	3,2
  1419  07B0  2FCE               	goto	l109
  1420  07B1                     l562:	
  1421                           
  1422                           ;main.c: 55: for(b=230;b>0;b--)
  1423  07B1  30E6               	movlw	230
  1424  07B2  00F0               	movwf	??_delay
  1425  07B3  0870               	movf	??_delay,w
  1426  07B4  00F2               	movwf	delay@b
  1427  07B5  0872               	movf	delay@b,w
  1428  07B6  1903               	btfsc	3,2
  1429  07B7  2FC9               	goto	l578
  1430  07B8                     l568:	
  1431                           
  1432                           ;main.c: 56: for(a=33;a>0;a--);
  1433  07B8  3021               	movlw	33
  1434  07B9  00F0               	movwf	??_delay
  1435  07BA  0870               	movf	??_delay,w
  1436  07BB  00F1               	movwf	delay@a
  1437  07BC  0871               	movf	delay@a,w
  1438  07BD  1903               	btfsc	3,2
  1439  07BE  2FC4               	goto	l576
  1440  07BF                     l574:	
  1441  07BF  3001               	movlw	1
  1442  07C0  02F1               	subwf	delay@a,f
  1443  07C1  0871               	movf	delay@a,w
  1444  07C2  1D03               	btfss	3,2
  1445  07C3  2FBF               	goto	l574
  1446  07C4                     l576:	
  1447  07C4  3001               	movlw	1
  1448  07C5  02F2               	subwf	delay@b,f
  1449  07C6  0872               	movf	delay@b,w
  1450  07C7  1D03               	btfss	3,2
  1451  07C8  2FB8               	goto	l568
  1452  07C9                     l578:	
  1453  07C9  3001               	movlw	1
  1454  07CA  02F3               	subwf	delay@c,f
  1455  07CB  0873               	movf	delay@c,w
  1456  07CC  1D03               	btfss	3,2
  1457  07CD  2FB1               	goto	l562
  1458  07CE                     l109:	
  1459  07CE  0000               	nop	;# 
  1460  07CF  0008               	return
  1461  07D0                     __end_of_delay:	
  1462                           
  1463                           	psect	text2
  1464  0780                     __ptext2:	
  1465 ;; *************** function _SYSTEM_Initialize *****************
  1466 ;; Defined at:
  1467 ;;		line 86 in file "mcc_generated_files/mcc.c"
  1468 ;; Parameters:    Size  Location     Type
  1469 ;;		None
  1470 ;; Auto vars:     Size  Location     Type
  1471 ;;		None
  1472 ;; Return value:  Size  Location     Type
  1473 ;;                  1    wreg      void 
  1474 ;; Registers used:
  1475 ;;		wreg, status,2, status,0, pclath, cstack
  1476 ;; Tracked objects:
  1477 ;;		On entry : 0/0
  1478 ;;		On exit  : 0/0
  1479 ;;		Unchanged: 0/0
  1480 ;; Data sizes:     COMMON   BANK0   BANK1   BANK2
  1481 ;;      Params:         0       0       0       0
  1482 ;;      Locals:         0       0       0       0
  1483 ;;      Temps:          0       0       0       0
  1484 ;;      Totals:         0       0       0       0
  1485 ;;Total ram usage:        0 bytes
  1486 ;; Hardware stack levels used:    1
  1487 ;; Hardware stack levels required when called:    1
  1488 ;; This function calls:
  1489 ;;		_EUSART1_Initialize
  1490 ;;		_OSCILLATOR_Initialize
  1491 ;;		_PIN_MANAGER_Initialize
  1492 ;; This function is called by:
  1493 ;;		_main
  1494 ;; This function uses a non-reentrant model
  1495 ;;
  1496                           
  1497                           
  1498                           ;psect for function _SYSTEM_Initialize
  1499  0780                     _SYSTEM_Initialize:	
  1500                           
  1501                           ;mcc.c: 89: PIN_MANAGER_Initialize();
  1502                           
  1503                           ;incstack = 0
  1504                           ; Regs used in _SYSTEM_Initialize: [wreg+status,2+status,0+pclath+cstack]
  1505  0780  27D0               	fcall	_PIN_MANAGER_Initialize
  1506                           
  1507                           ;mcc.c: 90: OSCILLATOR_Initialize();
  1508  0781  2790               	fcall	_OSCILLATOR_Initialize
  1509                           
  1510                           ;mcc.c: 91: EUSART1_Initialize();
  1511  0782  2784               	fcall	_EUSART1_Initialize
  1512  0783  0008               	return
  1513  0784                     __end_of_SYSTEM_Initialize:	
  1514                           
  1515                           	psect	text3
  1516  07D0                     __ptext3:	
  1517 ;; *************** function _PIN_MANAGER_Initialize *****************
  1518 ;; Defined at:
  1519 ;;		line 51 in file "mcc_generated_files/pin_manager.c"
  1520 ;; Parameters:    Size  Location     Type
  1521 ;;		None
  1522 ;; Auto vars:     Size  Location     Type
  1523 ;;  state           1    0[COMMON] unsigned char 
  1524 ;; Return value:  Size  Location     Type
  1525 ;;                  1    wreg      void 
  1526 ;; Registers used:
  1527 ;;		wreg, status,2, status,0
  1528 ;; Tracked objects:
  1529 ;;		On entry : 0/0
  1530 ;;		On exit  : 0/0
  1531 ;;		Unchanged: 0/0
  1532 ;; Data sizes:     COMMON   BANK0   BANK1   BANK2
  1533 ;;      Params:         0       0       0       0
  1534 ;;      Locals:         1       0       0       0
  1535 ;;      Temps:          0       0       0       0
  1536 ;;      Totals:         1       0       0       0
  1537 ;;Total ram usage:        1 bytes
  1538 ;; Hardware stack levels used:    1
  1539 ;; This function calls:
  1540 ;;		Nothing
  1541 ;; This function is called by:
  1542 ;;		_SYSTEM_Initialize
  1543 ;; This function uses a non-reentrant model
  1544 ;;
  1545                           
  1546                           
  1547                           ;psect for function _PIN_MANAGER_Initialize
  1548  07D0                     _PIN_MANAGER_Initialize:	
  1549                           
  1550                           ;pin_manager.c: 56: LATA = 0x00;
  1551                           
  1552                           ;incstack = 0
  1553                           ; Regs used in _PIN_MANAGER_Initialize: [wreg+status,2+status,0]
  1554  07D0  0140               	movlb	0	; select bank0
  1555  07D1  0198               	clrf	24	;volatile
  1556                           
  1557                           ;pin_manager.c: 57: LATC = 0x00;
  1558  07D2  019A               	clrf	26	;volatile
  1559                           
  1560                           ;pin_manager.c: 62: TRISA = 0x03;
  1561  07D3  3003               	movlw	3
  1562  07D4  0092               	movwf	18	;volatile
  1563                           
  1564                           ;pin_manager.c: 63: TRISC = 0x22;
  1565  07D5  3022               	movlw	34
  1566  07D6  0094               	movwf	20	;volatile
  1567                           
  1568                           ;pin_manager.c: 68: ANSELC = 0x1D;
  1569  07D7  301D               	movlw	29
  1570  07D8  017E               	movlb	62	; select bank62
  1571  07D9  00CE               	movwf	78	;volatile
  1572                           
  1573                           ;pin_manager.c: 69: ANSELA = 0x37;
  1574  07DA  3037               	movlw	55
  1575  07DB  00B8               	movwf	56	;volatile
  1576                           
  1577                           ;pin_manager.c: 74: WPUA = 0x00;
  1578  07DC  01B9               	clrf	57	;volatile
  1579                           
  1580                           ;pin_manager.c: 75: WPUC = 0x00;
  1581  07DD  01CF               	clrf	79	;volatile
  1582                           
  1583                           ;pin_manager.c: 80: ODCONA = 0x00;
  1584  07DE  01BA               	clrf	58	;volatile
  1585                           
  1586                           ;pin_manager.c: 81: ODCONC = 0x00;
  1587  07DF  01D0               	clrf	80	;volatile
  1588                           
  1589                           ;pin_manager.c: 88: bool state = GIE;
  1590  07E0  3000               	movlw	0
  1591  07E1  1B8B               	btfsc	11,7	;volatile
  1592  07E2  3001               	movlw	1
  1593  07E3  00F0               	movwf	PIN_MANAGER_Initialize@state
  1594                           
  1595                           ;pin_manager.c: 89: GIE = 0;
  1596  07E4  138B               	bcf	11,7	;volatile
  1597                           
  1598                           ;pin_manager.c: 90: PPSLOCK = 0x55;
  1599  07E5  3055               	movlw	85
  1600  07E6  017D               	movlb	61	; select bank61
  1601  07E7  008F               	movwf	15	;volatile
  1602                           
  1603                           ;pin_manager.c: 91: PPSLOCK = 0xAA;
  1604  07E8  30AA               	movlw	170
  1605  07E9  008F               	movwf	15	;volatile
  1606                           
  1607                           ;pin_manager.c: 92: PPSLOCKbits.PPSLOCKED = 0x00;
  1608  07EA  100F               	bcf	15,0	;volatile
  1609                           
  1610                           ;pin_manager.c: 94: RX1DTPPSbits.RX1DTPPS = 0x15;
  1611  07EB  084B               	movf	75,w	;volatile
  1612  07EC  39C0               	andlw	-64
  1613  07ED  3815               	iorlw	21
  1614  07EE  00CB               	movwf	75	;volatile
  1615                           
  1616                           ;pin_manager.c: 95: RC4PPS = 0x0F;
  1617  07EF  300F               	movlw	15
  1618  07F0  017E               	movlb	62	; select bank62
  1619  07F1  00A4               	movwf	36	;volatile
  1620                           
  1621                           ;pin_manager.c: 97: PPSLOCK = 0x55;
  1622  07F2  3055               	movlw	85
  1623  07F3  017D               	movlb	61	; select bank61
  1624  07F4  008F               	movwf	15	;volatile
  1625                           
  1626                           ;pin_manager.c: 98: PPSLOCK = 0xAA;
  1627  07F5  30AA               	movlw	170
  1628  07F6  008F               	movwf	15	;volatile
  1629                           
  1630                           ;pin_manager.c: 99: PPSLOCKbits.PPSLOCKED = 0x01;
  1631  07F7  140F               	bsf	15,0	;volatile
  1632                           
  1633                           ;pin_manager.c: 101: GIE = state;
  1634  07F8  1C70               	btfss	PIN_MANAGER_Initialize@state,0
  1635  07F9  2FFC               	goto	u10
  1636  07FA  178B               	bsf	11,7	;volatile
  1637  07FB  0008               	return
  1638  07FC                     u10:	
  1639  07FC  138B               	bcf	11,7	;volatile
  1640  07FD  0008               	return
  1641  07FE                     __end_of_PIN_MANAGER_Initialize:	
  1642                           
  1643                           	psect	text4
  1644  0790                     __ptext4:	
  1645 ;; *************** function _OSCILLATOR_Initialize *****************
  1646 ;; Defined at:
  1647 ;;		line 94 in file "mcc_generated_files/mcc.c"
  1648 ;; Parameters:    Size  Location     Type
  1649 ;;		None
  1650 ;; Auto vars:     Size  Location     Type
  1651 ;;		None
  1652 ;; Return value:  Size  Location     Type
  1653 ;;                  1    wreg      void 
  1654 ;; Registers used:
  1655 ;;		wreg, status,2
  1656 ;; Tracked objects:
  1657 ;;		On entry : 0/0
  1658 ;;		On exit  : 0/0
  1659 ;;		Unchanged: 0/0
  1660 ;; Data sizes:     COMMON   BANK0   BANK1   BANK2
  1661 ;;      Params:         0       0       0       0
  1662 ;;      Locals:         0       0       0       0
  1663 ;;      Temps:          0       0       0       0
  1664 ;;      Totals:         0       0       0       0
  1665 ;;Total ram usage:        0 bytes
  1666 ;; Hardware stack levels used:    1
  1667 ;; This function calls:
  1668 ;;		Nothing
  1669 ;; This function is called by:
  1670 ;;		_SYSTEM_Initialize
  1671 ;; This function uses a non-reentrant model
  1672 ;;
  1673                           
  1674                           
  1675                           ;psect for function _OSCILLATOR_Initialize
  1676  0790                     _OSCILLATOR_Initialize:	
  1677                           
  1678                           ;mcc.c: 97: OSCCON1 = 0x10;
  1679                           
  1680                           ;incstack = 0
  1681                           ; Regs used in _OSCILLATOR_Initialize: [wreg+status,2]
  1682  0790  3010               	movlw	16
  1683  0791  0151               	movlb	17	; select bank17
  1684  0792  008D               	movwf	13	;volatile
  1685                           
  1686                           ;mcc.c: 99: OSCCON3 = 0x00;
  1687  0793  018F               	clrf	15	;volatile
  1688                           
  1689                           ;mcc.c: 101: OSCEN = 0x00;
  1690  0794  0191               	clrf	17	;volatile
  1691                           
  1692                           ;mcc.c: 103: OSCFRQ = 0x05;
  1693  0795  3005               	movlw	5
  1694  0796  0093               	movwf	19	;volatile
  1695                           
  1696                           ;mcc.c: 105: OSCSTAT = 0x00;
  1697  0797  0190               	clrf	16	;volatile
  1698                           
  1699                           ;mcc.c: 107: OSCTUNE = 0x00;
  1700  0798  0192               	clrf	18	;volatile
  1701  0799                     l60:	
  1702                           ;mcc.c: 110: {
  1703                           
  1704                           ;mcc.c: 109: while(PLLR == 0)
  1705                           
  1706  0799  1810               	btfsc	16,0	;volatile
  1707  079A  0008               	return
  1708  079B  2F99               	goto	l60
  1709  079C                     __end_of_OSCILLATOR_Initialize:	
  1710                           
  1711                           	psect	text5
  1712  0784                     __ptext5:	
  1713 ;; *************** function _EUSART1_Initialize *****************
  1714 ;; Defined at:
  1715 ;;		line 55 in file "mcc_generated_files/eusart1.c"
  1716 ;; Parameters:    Size  Location     Type
  1717 ;;		None
  1718 ;; Auto vars:     Size  Location     Type
  1719 ;;		None
  1720 ;; Return value:  Size  Location     Type
  1721 ;;                  1    wreg      void 
  1722 ;; Registers used:
  1723 ;;		wreg
  1724 ;; Tracked objects:
  1725 ;;		On entry : 0/0
  1726 ;;		On exit  : 0/0
  1727 ;;		Unchanged: 0/0
  1728 ;; Data sizes:     COMMON   BANK0   BANK1   BANK2
  1729 ;;      Params:         0       0       0       0
  1730 ;;      Locals:         0       0       0       0
  1731 ;;      Temps:          0       0       0       0
  1732 ;;      Totals:         0       0       0       0
  1733 ;;Total ram usage:        0 bytes
  1734 ;; Hardware stack levels used:    1
  1735 ;; This function calls:
  1736 ;;		Nothing
  1737 ;; This function is called by:
  1738 ;;		_SYSTEM_Initialize
  1739 ;; This function uses a non-reentrant model
  1740 ;;
  1741                           
  1742                           
  1743                           ;psect for function _EUSART1_Initialize
  1744  0784                     _EUSART1_Initialize:	
  1745                           
  1746                           ;eusart1.c: 60: BAUD1CON = 0x08;
  1747                           
  1748                           ;incstack = 0
  1749                           ; Regs used in _EUSART1_Initialize: [wreg]
  1750  0784  3008               	movlw	8
  1751  0785  0142               	movlb	2	; select bank2
  1752  0786  009F               	movwf	31	;volatile
  1753                           
  1754                           ;eusart1.c: 63: RC1STA = 0x90;
  1755  0787  3090               	movlw	144
  1756  0788  009D               	movwf	29	;volatile
  1757                           
  1758                           ;eusart1.c: 66: TX1STA = 0x24;
  1759  0789  3024               	movlw	36
  1760  078A  009E               	movwf	30	;volatile
  1761                           
  1762                           ;eusart1.c: 69: SP1BRGL = 0x40;
  1763  078B  3040               	movlw	64
  1764  078C  009B               	movwf	27	;volatile
  1765                           
  1766                           ;eusart1.c: 72: SP1BRGH = 0x03;
  1767  078D  3003               	movlw	3
  1768  078E  009C               	movwf	28	;volatile
  1769  078F  0008               	return
  1770  0790                     __end_of_EUSART1_Initialize:	
  1771  007E                     btemp	set	126	;btemp
  1772  007E                     wtemp0	set	126


Data Sizes:
    Strings     0
    Constant    0
    Data        0
    BSS         0
    Persistent  0
    Stack       0

Auto Spaces:
    Space          Size  Autos    Used
    COMMON           14      4       4
    BANK0            80      0       0
    BANK1            80      0       0
    BANK2            80      0       0

Pointer List with Targets:

    None.

Critical Paths under _main in COMMON

    _main->_delay
    _SYSTEM_Initialize->_PIN_MANAGER_Initialize

Critical Paths under _main in BANK0

    None.

Critical Paths under _main in BANK1

    None.

Critical Paths under _main in BANK2

    None.

Call Graph Tables:

 ---------------------------------------------------------------------------------
 (Depth) Function   	        Calls       Base Space   Used Autos Params    Refs
 ---------------------------------------------------------------------------------
 (0) _main                                                 0     0      0     105
                  _SYSTEM_Initialize
                              _delay
 ---------------------------------------------------------------------------------
 (1) _delay                                                4     4      0      90
                                              0 COMMON     4     4      0
 ---------------------------------------------------------------------------------
 (1) _SYSTEM_Initialize                                    0     0      0      15
                 _EUSART1_Initialize
              _OSCILLATOR_Initialize
             _PIN_MANAGER_Initialize
 ---------------------------------------------------------------------------------
 (2) _PIN_MANAGER_Initialize                               1     1      0      15
                                              0 COMMON     1     1      0
 ---------------------------------------------------------------------------------
 (2) _OSCILLATOR_Initialize                                0     0      0       0
 ---------------------------------------------------------------------------------
 (2) _EUSART1_Initialize                                   0     0      0       0
 ---------------------------------------------------------------------------------
 Estimated maximum stack depth 2
 ---------------------------------------------------------------------------------

 Call Graph Graphs:

 _main (ROOT)
   _SYSTEM_Initialize
     _EUSART1_Initialize
     _OSCILLATOR_Initialize
     _PIN_MANAGER_Initialize
   _delay

 Address spaces:
Name               Size   Autos  Total    Cost      Usage
BIGRAM              F0      0       0       0        0.0%
NULL                 0      0       0       0        0.0%
CODE                 0      0       0       0        0.0%
BITCOMMON            E      0       0       1        0.0%
BITSFR0              0      0       0       1        0.0%
SFR0                 0      0       0       1        0.0%
COMMON               E      4       4       2       28.6%
BITSFR1              0      0       0       2        0.0%
SFR1                 0      0       0       2        0.0%
BITSFR2              0      0       0       3        0.0%
SFR2                 0      0       0       3        0.0%
STACK                0      0       0       3        0.0%
BITBANK0            50      0       0       4        0.0%
BITSFR3              0      0       0       4        0.0%
SFR3                 0      0       0       4        0.0%
BANK0               50      0       0       5        0.0%
BITSFR4              0      0       0       5        0.0%
SFR4                 0      0       0       5        0.0%
BITBANK1            50      0       0       6        0.0%
BITSFR5              0      0       0       6        0.0%
SFR5                 0      0       0       6        0.0%
BANK1               50      0       0       7        0.0%
BITSFR6              0      0       0       7        0.0%
SFR6                 0      0       0       7        0.0%
BITBANK2            50      0       0       8        0.0%
BITSFR7              0      0       0       8        0.0%
SFR7                 0      0       0       8        0.0%
BANK2               50      0       0       9        0.0%
BITSFR8              0      0       0       9        0.0%
SFR8                 0      0       0       9        0.0%
BITSFR9              0      0       0      10        0.0%
SFR9                 0      0       0      10        0.0%
ABS                  0      0       0      10        0.0%
BITSFR10             0      0       0      11        0.0%
SFR10                0      0       0      11        0.0%
DATA                 0      0       0      11        0.0%
BITSFR11             0      0       0      12        0.0%
SFR11                0      0       0      12        0.0%
BITSFR12             0      0       0      13        0.0%
SFR12                0      0       0      13        0.0%
BITSFR13             0      0       0      14        0.0%
SFR13                0      0       0      14        0.0%
BITSFR14             0      0       0      15        0.0%
SFR14                0      0       0      15        0.0%
BITSFR15             0      0       0      16        0.0%
SFR15                0      0       0      16        0.0%
BITSFR16             0      0       0      17        0.0%
SFR16                0      0       0      17        0.0%
BITSFR17             0      0       0      18        0.0%
SFR17                0      0       0      18        0.0%
BITSFR18             0      0       0      19        0.0%
SFR18                0      0       0      19        0.0%
BITSFR19             0      0       0      20        0.0%
SFR19                0      0       0      20        0.0%
BITSFR20             0      0       0      21        0.0%
SFR20                0      0       0      21        0.0%
BITSFR21             0      0       0      22        0.0%
SFR21                0      0       0      22        0.0%
BITSFR22             0      0       0      23        0.0%
SFR22                0      0       0      23        0.0%
BITSFR23             0      0       0      24        0.0%
SFR23                0      0       0      24        0.0%
BITSFR24             0      0       0      25        0.0%
SFR24                0      0       0      25        0.0%
BITSFR25             0      0       0      26        0.0%
SFR25                0      0       0      26        0.0%
BITSFR26             0      0       0      27        0.0%
SFR26                0      0       0      27        0.0%
BITSFR27             0      0       0      28        0.0%
SFR27                0      0       0      28        0.0%
BITSFR28             0      0       0      29        0.0%
SFR28                0      0       0      29        0.0%
BITSFR29             0      0       0      30        0.0%
SFR29                0      0       0      30        0.0%
BITSFR30             0      0       0      31        0.0%
SFR30                0      0       0      31        0.0%
BITSFR31             0      0       0      32        0.0%
SFR31                0      0       0      32        0.0%
BITSFR32             0      0       0      33        0.0%
SFR32                0      0       0      33        0.0%
BITSFR33             0      0       0      34        0.0%
SFR33                0      0       0      34        0.0%
BITSFR34             0      0       0      35        0.0%
SFR34                0      0       0      35        0.0%
BITSFR35             0      0       0      36        0.0%
SFR35                0      0       0      36        0.0%
BITSFR36             0      0       0      37        0.0%
SFR36                0      0       0      37        0.0%
BITSFR37             0      0       0      38        0.0%
SFR37                0      0       0      38        0.0%
BITSFR38             0      0       0      39        0.0%
SFR38                0      0       0      39        0.0%
BITSFR39             0      0       0      40        0.0%
SFR39                0      0       0      40        0.0%
BITSFR40             0      0       0      41        0.0%
SFR40                0      0       0      41        0.0%
BITSFR41             0      0       0      42        0.0%
SFR41                0      0       0      42        0.0%
BITSFR42             0      0       0      43        0.0%
SFR42                0      0       0      43        0.0%
BITSFR43             0      0       0      44        0.0%
SFR43                0      0       0      44        0.0%
BITSFR44             0      0       0      45        0.0%
SFR44                0      0       0      45        0.0%
BITSFR45             0      0       0      46        0.0%
SFR45                0      0       0      46        0.0%
BITSFR46             0      0       0      47        0.0%
SFR46                0      0       0      47        0.0%
BITSFR47             0      0       0      48        0.0%
SFR47                0      0       0      48        0.0%
BITSFR48             0      0       0      49        0.0%
SFR48                0      0       0      49        0.0%
BITSFR49             0      0       0      50        0.0%
SFR49                0      0       0      50        0.0%
BITSFR50             0      0       0      51        0.0%
SFR50                0      0       0      51        0.0%
BITSFR51             0      0       0      52        0.0%
SFR51                0      0       0      52        0.0%
BITSFR52             0      0       0      53        0.0%
SFR52                0      0       0      53        0.0%
BITSFR53             0      0       0      54        0.0%
SFR53                0      0       0      54        0.0%
BITSFR54             0      0       0      55        0.0%
SFR54                0      0       0      55        0.0%
BITSFR55             0      0       0      56        0.0%
SFR55                0      0       0      56        0.0%
BITSFR56             0      0       0      57        0.0%
SFR56                0      0       0      57        0.0%
BITSFR57             0      0       0      58        0.0%
SFR57                0      0       0      58        0.0%
BITSFR58             0      0       0      59        0.0%
SFR58                0      0       0      59        0.0%
BITSFR59             0      0       0      60        0.0%
SFR59                0      0       0      60        0.0%
BITSFR60             0      0       0      61        0.0%
SFR60                0      0       0      61        0.0%
BITSFR61             0      0       0      62        0.0%
SFR61                0      0       0      62        0.0%
BITSFR62             0      0       0      63        0.0%
SFR62                0      0       0      63        0.0%
BITSFR63             0      0       0      64        0.0%
SFR63                0      0       0      64        0.0%


Microchip Technology PIC Macro Assembler V1.43 build -156212558 
Symbol Table                                                                                   Fri Aug 25 11:00:34 2017

                    __CFG_CP$OFF 0000                               l60 0799                               u10 07FC  
                    __CFG_LVP$ON 0000                              l109 07CE                              l562 07B1  
                            l574 07BF                              l576 07C4                              l568 07B8  
                            l578 07C9                              l594 079D                              _GIE 005F  
                   __CFG_BORV$LO 0000                    __CFG_BBEN$OFF 0000                     __CFG_ZCD$OFF 0000  
                           _LATA 0018                             _LATC 001A                             _PLLR 4480  
                           _WPUA 1F39                             _WPUC 1F4F                    __CFG_FCMEN$ON 0000  
                           _main 079C                             btemp 007E                    __CFG_BOREN$ON 0000  
                           start 0001                    __CFG_CSWEN$ON 0000   __size_of_OSCILLATOR_Initialize 000C  
  __end_of_OSCILLATOR_Initialize 079C                            ?_main 0070                    __CFG_WDTE$OFF 0000  
                          _OSCEN 0891                            _TRISA 0012                            _TRISC 0014  
                  __CFG_WRTB$OFF 0000                    __CFG_WRTC$OFF 0000                            _delay 07AA  
                          status 0003                            wtemp0 007E                   __CFG_MCLRE$OFF 0000  
                __initialization 07FE       __end_of_EUSART1_Initialize 0790                     __end_of_main 07AA  
                 __CFG_SAFEN$OFF 0000                           ??_main 0074                           ?_delay 0070  
                         _ANSELA 1F38                           _ANSELC 1F4E                           _RC1REG 0119  
                         _RC1STA 011D                           _RC4PPS 1F24                           _ODCONA 1F3A  
                         _ODCONC 1F50                   __CFG_WDTCCS$SC 0000                           _OSCFRQ 0893  
                         _TX1REG 011A                           _TX1STA 011E                   __CFG_PWRTE$OFF 0000  
                 __CFG_STVREN$ON 0000                           delay@a 0071                           delay@b 0072  
                         delay@c 0073                _SYSTEM_Initialize 0780          __end_of__initialization 07FE  
             ?_SYSTEM_Initialize 0070                   __pcstackCOMMON 0070              ??_SYSTEM_Initialize 0071  
                  __end_of_delay 07D0                          ??_delay 0070        __end_of_SYSTEM_Initialize 0784  
                     __pmaintext 079C                  __CFG_PPS1WAY$ON 0000                          _SP1BRGH 011C  
                        _SP1BRGL 011B                          _OSCCON1 088D                          _OSCCON3 088F  
                        _OSCSTAT 0890                          _OSCTUNE 0892                          _PPSLOCK 1E8F  
                        __ptext1 07AA                          __ptext2 0780                          __ptext3 07D0  
                        __ptext4 0790                          __ptext5 0784                  __CFG_WRTAPP$OFF 0000  
          _OSCILLATOR_Initialize 0790               _EUSART1_Initialize 0784         ??_PIN_MANAGER_Initialize 0070  
                __CFG_WRTSAF$OFF 0000       __size_of_SYSTEM_Initialize 0004             end_of_initialization 07FE  
            ?_EUSART1_Initialize 0070             ??_EUSART1_Initialize 0070            __CFG_WDTCPS$WDTCPS_31 0000  
               __CFG_FEXTOSC$OFF 0000           ?_OSCILLATOR_Initialize 0070              start_initialization 07FE  
__size_of_PIN_MANAGER_Initialize 002E                 __CFG_LPBOREN$OFF 0000                        ___latbits 0000  
         _PIN_MANAGER_Initialize 07D0                         _BAUD1CON 011F                   __size_of_delay 0026  
           __CFG_RSTOSC$HFINTPLL 0000                         _LATAbits 0018                         _LATCbits 001A  
                       _PIR3bits 070F                __CFG_BBSIZE$BB512 0000                     _RX1DTPPSbits 1ECB  
        ??_OSCILLATOR_Initialize 0070      __size_of_EUSART1_Initialize 000C                    __size_of_main 000E  
           __CFG_WDTCWS$WDTCWS_7 0000                       _RC1STAbits 011D      PIN_MANAGER_Initialize@state 0070  
        ?_PIN_MANAGER_Initialize 0070                __CFG_CLKOUTEN$OFF 0000                      _PPSLOCKbits 1E8F  
 __end_of_PIN_MANAGER_Initialize 07FE  
